(dp0
S'cookies'
p1
(dp2
S'wxloadtime'
p3
S'1501145226'
p4
sS'webwx_data_ticket'
p5
S'gSdSlH0oGTe34P5rGs7C4Ply'
p6
sS'wxuin'
p7
S'1851969378'
p8
sS'login_frequency'
p9
S'2'
p10
sS'MM_WX_NOTIFY_STATE'
p11
S'1'
p12
sS'MM_WX_SOUND_STATE'
p13
g12
sS'webwx_auth_ticket'
p14
S'CIsBEKukoOoDGoABjesBSS3S/Xb4aZqvpC5WCshFceAxtCXVvOStca0V5zbxILcFh74K9W5jybrByOGSvkkKoYjexVrKEY9WR7Ollxmm3jKYu+O++rhdIJAoFeW3hMv6SnipHm6BD81DYRVxMMUHODCbvhETneJl/4Zwp/1gyb/3lFg+N5Qk2LwO/Cw='
p15
sS'last_wxuin'
p16
S'1851969378'
p17
sS'webwxuvid'
p18
S'5274707d4768aaa9a556269c948d0ede1706d4acc387c882feab3880c64995aeaa50819edfc9048e72b72b7f0632d54a'
p19
sS'wxpluginkey'
p20
S'1501144499'
p21
sS'wxsid'
p22
S'ryUhJLHb0+DGZLNG'
p23
sS'mm_lang'
p24
S'zh_CN'
p25
ssS'version'
p26
S'1.3.6'
p27
sS'storage'
p28
(dp29
S'userName'
p30
V@c00ac759ba2f0a773067c6f63c38d9cf6e81ea0cecf5e3885c207a06d7dd03e4
p31
sS'lastInputUserName'
p32
NsS'memberList'
p33
ccopy_reg
_reconstructor
p34
(citchat.storage.templates
ContactList
p35
c__builtin__
list
p36
(lp37
g34
(citchat.storage.templates
User
p38
c__builtin__
dict
p39
(dp40
S'UserName'
p41
g31
sS'City'
p42
S''
p43
sS'DisplayName'
p44
g43
sS'UniFriend'
p45
I0
sS'OwnerUin'
p46
I0
sS'MemberList'
p47
g34
(g35
g36
(lp48
tp49
Rp50
I1
bsS'PYQuanPin'
p51
V
p52
sS'RemarkPYInitial'
p53
g52
sS'Uin'
p54
I1851969378
sS'AppAccountFlag'
p55
I0
sS'VerifyFlag'
p56
I0
sS'Province'
p57
g43
sS'KeyWord'
p58
g43
sS'RemarkName'
p59
g52
sS'PYInitial'
p60
g52
sS'ChatRoomId'
p61
I0
sS'HideInputBarFlag'
p62
I0
sVHeadImgFlag
p63
I1
sS'EncryChatRoomId'
p64
g43
sS'AttrStatus'
p65
I0
sS'SnsFlag'
p66
I0
sS'MemberCount'
p67
I0
sVWebWxPluginSwitch
p68
I0
sS'Alias'
p69
g43
sS'Signature'
p70
g52
sS'ContactFlag'
p71
I0
sS'NickName'
p72
V\u73ed\u5f1f\u9759\u542c
p73
sS'RemarkPYQuanPin'
p74
g52
sS'HeadImgUrl'
p75
V/cgi-bin/mmwebwx-bin/webwxgeticon?seq=312709833&username=@c00ac759ba2f0a773067c6f63c38d9cf6e81ea0cecf5e3885c207a06d7dd03e4&skey=@crypt_2c74ff4e_fa67f3ccb0eadaae3019009aafaecab6
p76
sS'Sex'
p77
I0
sS'StarFriend'
p78
I0
sS'Statues'
p79
I0
stp80
Rp81
I1
bag34
(g38
g39
(dp82
VUserName
p83
V@977cf34f43abe9b79dd45476a01d3dc16d6d2cf07e99182a09ee04bdc3750ecb
p84
sVCity
p85
g52
sVSnsFlag
p86
I17
sVDisplayName
p87
g52
sVUniFriend
p88
I0
sVMemberCount
p89
I0
sVOwnerUin
p90
I0
sVMemberList
p91
g50
sVAlias
p92
g52
sVPYQuanPin
p93
Vchao
p94
sVSignature
p95
V\u4e0d\u53ef\u66ff\u4ee3
p96
sVRemarkPYInitial
p97
g52
sVContactFlag
p98
I3
sVUin
p99
I0
sVNickName
p100
V\u8d85
p101
sVAppAccountFlag
p102
I0
sVVerifyFlag
p103
I0
sVRemarkPYQuanPin
p104
g52
sVHeadImgUrl
p105
V/cgi-bin/mmwebwx-bin/webwxgeticon?seq=653491040&username=@977cf34f43abe9b79dd45476a01d3dc16d6d2cf07e99182a09ee04bdc3750ecb&skey=@crypt_2c74ff4e_fa67f3ccb0eadaae3019009aafaecab6
p106
sVKeyWord
p107
g52
sVProvince
p108
V\u5317\u4eac
p109
sVPYInitial
p110
VC
p111
sVRemarkName
p112
g52
sVIsOwner
p113
I0
sVSex
p114
I1
sVStarFriend
p115
I0
sVHideInputBarFlag
p116
I0
sVChatRoomId
p117
I0
sVEncryChatRoomId
p118
g52
sVAttrStatus
p119
I4129
sVStatues
p120
I0
stp121
Rp122
I1
bag34
(g38
g39
(dp123
VUserName
p124
V@3632735d9d90fc03416317452b03be52d26a9afc6ab4aeda17f7c401f121353f
p125
sVCity
p126
V\u671d\u9633
p127
sVSnsFlag
p128
I49
sVDisplayName
p129
g52
sVUniFriend
p130
I0
sVMemberCount
p131
I0
sVOwnerUin
p132
I0
sVMemberList
p133
g50
sVAlias
p134
g52
sVPYQuanPin
p135
Vqianqian
p136
sVSignature
p137
V\u7231\u81ea\u5df1\uff0c\u7231\u751f\u6d3b
p138
sVRemarkPYInitial
p139
g52
sVContactFlag
p140
I3
sVUin
p141
I0
sVNickName
p142
V\u5029\u5029
p143
sVAppAccountFlag
p144
I0
sVVerifyFlag
p145
I0
sVRemarkPYQuanPin
p146
g52
sVHeadImgUrl
p147
V/cgi-bin/mmwebwx-bin/webwxgeticon?seq=653491048&username=@3632735d9d90fc03416317452b03be52d26a9afc6ab4aeda17f7c401f121353f&skey=@crypt_2c74ff4e_fa67f3ccb0eadaae3019009aafaecab6
p148
sVKeyWord
p149
g52
sVProvince
p150
V\u5317\u4eac
p151
sVPYInitial
p152
VQQ
p153
sVRemarkName
p154
g52
sVIsOwner
p155
I0
sVSex
p156
I2
sVStarFriend
p157
I0
sVHideInputBarFlag
p158
I0
sVChatRoomId
p159
I0
sVEncryChatRoomId
p160
g52
sVAttrStatus
p161
I110695
sVStatues
p162
I0
stp163
Rp164
I1
bag34
(g38
g39
(dp165
VUserName
p166
V@bf13b5fdb53e90c5fe713ba461d3d206
p167
sVCity
p168
V\u9f50\u9f50\u54c8\u5c14
p169
sVSnsFlag
p170
I17
sVDisplayName
p171
g52
sVUniFriend
p172
I0
sVMemberCount
p173
I0
sVOwnerUin
p174
I0
sVMemberList
p175
g50
sVAlias
p176
g52
sVPYQuanPin
p177
Vlizuowang
p178
sVSignature
p179
V\u83ab\u602a\u4e16\u592a\u51c9 \u53ea\u95ee\u6b7b\u80fd\u5b89\uff1f\u2026
p180
sVRemarkPYInitial
p181
g52
sVContactFlag
p182
I3
sVUin
p183
I0
sVNickName
p184
V\u674e`\u5750\u5fd8
p185
sVAppAccountFlag
p186
I0
sVVerifyFlag
p187
I0
sVRemarkPYQuanPin
p188
g52
sVHeadImgUrl
p189
V/cgi-bin/mmwebwx-bin/webwxgeticon?seq=653490160&username=@bf13b5fdb53e90c5fe713ba461d3d206&skey=@crypt_2c74ff4e_fa67f3ccb0eadaae3019009aafaecab6
p190
sVKeyWord
p191
Vshe
p192
sVProvince
p193
V\u9ed1\u9f99\u6c5f
p194
sVPYInitial
p195
VLZW
p196
sVRemarkName
p197
g52
sVIsOwner
p198
I0
sVSex
p199
I1
sVStarFriend
p200
I0
sVHideInputBarFlag
p201
I0
sVChatRoomId
p202
I0
sVEncryChatRoomId
p203
g52
sVAttrStatus
p204
I12391
sVStatues
p205
I0
stp206
Rp207
I1
bag34
(g38
g39
(dp208
VUserName
p209
V@a19ce41a6823ca9e22c14f146e648dd714e3817425bf0a813c3509c0f0bef3e8
p210
sVCity
p211
V\u4e30\u53f0
p212
sVSnsFlag
p213
I49
sVDisplayName
p214
g52
sVUniFriend
p215
I0
sVMemberCount
p216
I0
sVOwnerUin
p217
I0
sVMemberList
p218
g50
sVAlias
p219
g52
sVPYQuanPin
p220
Vbangejingting
p221
sVSignature
p222
g52
sVRemarkPYInitial
p223
g52
sVContactFlag
p224
I3
sVUin
p225
I0
sVNickName
p226
V\u73ed\u54e5\u9759\u542c
p227
sVAppAccountFlag
p228
I0
sVVerifyFlag
p229
I0
sVRemarkPYQuanPin
p230
g52
sVHeadImgUrl
p231
V/cgi-bin/mmwebwx-bin/webwxgeticon?seq=653490164&username=@a19ce41a6823ca9e22c14f146e648dd714e3817425bf0a813c3509c0f0bef3e8&skey=@crypt_2c74ff4e_fa67f3ccb0eadaae3019009aafaecab6
p232
sVKeyWord
p233
g52
sVProvince
p234
V\u5317\u4eac
p235
sVPYInitial
p236
VBGJT
p237
sVRemarkName
p238
g52
sVIsOwner
p239
I0
sVSex
p240
I1
sVStarFriend
p241
I0
sVHideInputBarFlag
p242
I0
sVChatRoomId
p243
I0
sVEncryChatRoomId
p244
g52
sVAttrStatus
p245
I102695
sVStatues
p246
I0
stp247
Rp248
I1
bag34
(g38
g39
(dp249
VUserName
p250
V@5c3f0906b4964c083d733f6545a69e9e
p251
sVCity
p252
V\u6d77\u53e3
p253
sVSnsFlag
p254
I49
sVDisplayName
p255
g52
sVUniFriend
p256
I0
sVMemberCount
p257
I0
sVOwnerUin
p258
I0
sVMemberList
p259
g50
sVAlias
p260
g52
sVPYQuanPin
p261
Vhuazai
p262
sVSignature
p263
g52
sVRemarkPYInitial
p264
g52
sVContactFlag
p265
I3
sVUin
p266
I0
sVNickName
p267
V\u534e\u4ed4
p268
sVAppAccountFlag
p269
I0
sVVerifyFlag
p270
I0
sVRemarkPYQuanPin
p271
g52
sVHeadImgUrl
p272
V/cgi-bin/mmwebwx-bin/webwxgeticon?seq=653490571&username=@5c3f0906b4964c083d733f6545a69e9e&skey=@crypt_2c74ff4e_fa67f3ccb0eadaae3019009aafaecab6
p273
sVKeyWord
p274
Vcsh
p275
sVProvince
p276
V\u6d77\u5357
p277
sVPYInitial
p278
VHZ
p279
sVRemarkName
p280
g52
sVIsOwner
p281
I0
sVSex
p282
I1
sVStarFriend
p283
I0
sVHideInputBarFlag
p284
I0
sVChatRoomId
p285
I0
sVEncryChatRoomId
p286
g52
sVAttrStatus
p287
I243169
sVStatues
p288
I0
stp289
Rp290
I1
batp291
Rp292
I1
bsS'chatroomList'
p293
g34
(g35
g36
(lp294
g34
(citchat.storage.templates
Chatroom
p295
g39
(dp296
VUserName
p297
V@@0d5c3ddb42edc5f917a8d50f14396369d396a374ba3dbc1a60d72997a725ec7f
p298
sVCity
p299
g52
sVDisplayName
p300
g52
sVUniFriend
p301
I0
sS'Self'
p302
g34
(g38
g39
(dp303
g41
g31
sg42
g43
sg44
g43
sg45
I0
sg46
I0
sg47
g34
(g35
g36
(lp304
tp305
Rp306
I1
bsg51
g52
sg53
g52
sg54
I1851969378
sg55
I0
sg56
I0
sg57
g43
sg58
g43
sg59
g52
sg60
g52
sg61
I0
sg62
I0
sg63
I1
sg64
g43
sg65
I0
sg66
I0
sg67
I0
sg68
I0
sg69
g43
sg70
g52
sg71
I0
sg72
g73
sg74
g52
sg75
g76
sg77
I0
sg78
I0
sg79
I0
stp307
Rp308
I1
bsVMemberList
p309
g34
(g35
g36
(lp310
tp311
Rp312
I1
bsVPYQuanPin
p313
Vceshiqun
p314
sVRemarkPYInitial
p315
g52
sVSex
p316
I0
sVAppAccountFlag
p317
I0
sVVerifyFlag
p318
I0
sVProvince
p319
g52
sVKeyWord
p320
g52
sVRemarkName
p321
g52
sVPYInitial
p322
VCSQ
p323
sVIsOwner
p324
I0
sVChatRoomId
p325
I0
sVHideInputBarFlag
p326
I0
sVEncryChatRoomId
p327
g52
sVAttrStatus
p328
I0
sVSnsFlag
p329
I0
sVMemberCount
p330
I0
sVOwnerUin
p331
I0
sVAlias
p332
g52
sS'IsAdmin'
p333
NsVSignature
p334
g52
sVContactFlag
p335
I3
sVNickName
p336
V\u6d4b\u8bd5\u7fa4
p337
sVRemarkPYQuanPin
p338
g52
sVHeadImgUrl
p339
V/cgi-bin/mmwebwx-bin/webwxgetheadimg?seq=653490721&username=@@0d5c3ddb42edc5f917a8d50f14396369d396a374ba3dbc1a60d72997a725ec7f&skey=@crypt_2c74ff4e_fa67f3ccb0eadaae3019009aafaecab6
p340
sVUin
p341
I0
sVStarFriend
p342
I0
sVStatues
p343
I1
stp344
Rp345
I1
bag34
(g295
g39
(dp346
VUserName
p347
V@@1d70971202e61b422195acc412f00f97730e19c42db44414ee9c50c6a38cdd75
p348
sVCity
p349
g52
sVDisplayName
p350
g52
sVUniFriend
p351
I0
sg302
g34
(g38
g39
(dp352
g41
g31
sg42
g43
sg44
g43
sg45
I0
sg46
I0
sg47
g34
(g35
g36
(lp353
tp354
Rp355
I1
bsg51
g52
sg53
g52
sg54
I1851969378
sg55
I0
sg56
I0
sg57
g43
sg58
g43
sg59
g52
sg60
g52
sg61
I0
sg62
I0
sg63
I1
sg64
g43
sg65
I0
sg66
I0
sg67
I0
sg68
I0
sg69
g43
sg70
g52
sg71
I0
sg72
g73
sg74
g52
sg75
g76
sg77
I0
sg78
I0
sg79
I0
stp356
Rp357
I1
bsVMemberList
p358
g34
(g35
g36
(lp359
tp360
Rp361
I1
bsVPYQuanPin
p362
Vceshiqun1
p363
sVRemarkPYInitial
p364
g52
sVSex
p365
I0
sVAppAccountFlag
p366
I0
sVVerifyFlag
p367
I0
sVProvince
p368
g52
sVKeyWord
p369
g52
sVRemarkName
p370
g52
sVPYInitial
p371
VCSQ1
p372
sVIsOwner
p373
I0
sVChatRoomId
p374
I0
sVHideInputBarFlag
p375
I0
sVEncryChatRoomId
p376
g52
sVAttrStatus
p377
I0
sVSnsFlag
p378
I0
sVMemberCount
p379
I0
sVOwnerUin
p380
I0
sVAlias
p381
g52
sg333
NsVSignature
p382
g52
sVContactFlag
p383
I3
sVNickName
p384
V\u6d4b\u8bd5\u7fa41
p385
sVRemarkPYQuanPin
p386
g52
sVHeadImgUrl
p387
V/cgi-bin/mmwebwx-bin/webwxgetheadimg?seq=653490802&username=@@1d70971202e61b422195acc412f00f97730e19c42db44414ee9c50c6a38cdd75&skey=@crypt_2c74ff4e_fa67f3ccb0eadaae3019009aafaecab6
p388
sVUin
p389
I0
sVStarFriend
p390
I0
sVStatues
p391
I1
stp392
Rp393
I1
bag34
(g295
g39
(dp394
VUserName
p395
V@@2736e656d191f8ab6a5a8c1f77fb5fdca0de87ca005c9eb39fe83024c5adeb96
p396
sVCity
p397
g52
sVDisplayName
p398
g52
sVUniFriend
p399
I0
sg302
g34
(g38
g39
(dp400
g41
g31
sg42
g43
sg44
g43
sg45
I0
sg46
I0
sg47
g34
(g35
g36
(lp401
tp402
Rp403
I1
bsg51
g52
sg53
g52
sg54
I1851969378
sg55
I0
sg56
I0
sg57
g43
sg58
g43
sg59
g52
sg60
g52
sg61
I0
sg62
I0
sg63
I1
sg64
g43
sg65
I0
sg66
I0
sg67
I0
sg68
I0
sg69
g43
sg70
g52
sg71
I0
sg72
g73
sg74
g52
sg75
g76
sg77
I0
sg78
I0
sg79
I0
stp404
Rp405
I1
bsVMemberList
p406
g34
(g35
g36
(lp407
tp408
Rp409
I1
bsVPYQuanPin
p410
Vceshi2qun
p411
sVRemarkPYInitial
p412
g52
sVSex
p413
I0
sVAppAccountFlag
p414
I0
sVVerifyFlag
p415
I0
sVProvince
p416
g52
sVKeyWord
p417
g52
sVRemarkName
p418
g52
sVPYInitial
p419
VCS2Q
p420
sVIsOwner
p421
I0
sVChatRoomId
p422
I0
sVHideInputBarFlag
p423
I0
sVEncryChatRoomId
p424
g52
sVAttrStatus
p425
I0
sVSnsFlag
p426
I0
sVMemberCount
p427
I0
sVOwnerUin
p428
I0
sVAlias
p429
g52
sg333
NsVSignature
p430
g52
sVContactFlag
p431
I3
sVNickName
p432
V\u6d4b\u8bd52\u7fa4
p433
sVRemarkPYQuanPin
p434
g52
sVHeadImgUrl
p435
V/cgi-bin/mmwebwx-bin/webwxgetheadimg?seq=653490819&username=@@2736e656d191f8ab6a5a8c1f77fb5fdca0de87ca005c9eb39fe83024c5adeb96&skey=@crypt_2c74ff4e_fa67f3ccb0eadaae3019009aafaecab6
p436
sVUin
p437
I0
sVStarFriend
p438
I0
sVStatues
p439
I1
stp440
Rp441
I1
bag34
(g295
g39
(dp442
VUserName
p443
V@@7247447b8c0d154421baa90c343dc32d3c517d39702cf6abdd1f06c2160ee71f
p444
sVCity
p445
g52
sVDisplayName
p446
g52
sVUniFriend
p447
I0
sg302
g34
(g38
g39
(dp448
g41
g31
sg42
g43
sg44
g43
sg45
I0
sg46
I0
sg47
g34
(g35
g36
(lp449
tp450
Rp451
I1
bsg51
g52
sg53
g52
sg54
I1851969378
sg55
I0
sg56
I0
sg57
g43
sg58
g43
sg59
g52
sg60
g52
sg61
I0
sg62
I0
sg63
I1
sg64
g43
sg65
I0
sg66
I0
sg67
I0
sg68
I0
sg69
g43
sg70
g52
sg71
I0
sg72
g73
sg74
g52
sg75
g76
sg77
I0
sg78
I0
sg79
I0
stp452
Rp453
I1
bsVMemberList
p454
g34
(g35
g36
(lp455
tp456
Rp457
I1
bsVPYQuanPin
p458
Vzheshiqunliao
p459
sVRemarkPYInitial
p460
g52
sVSex
p461
I0
sVAppAccountFlag
p462
I0
sVVerifyFlag
p463
I0
sVProvince
p464
g52
sVKeyWord
p465
g52
sVRemarkName
p466
g52
sVPYInitial
p467
VZSQL
p468
sVIsOwner
p469
I1
sVChatRoomId
p470
I0
sVHideInputBarFlag
p471
I0
sVEncryChatRoomId
p472
g52
sVAttrStatus
p473
I0
sVSnsFlag
p474
I0
sVMemberCount
p475
I0
sVOwnerUin
p476
I0
sVAlias
p477
g52
sg333
NsVSignature
p478
g52
sVContactFlag
p479
I3
sVNickName
p480
V\u8fd9\u662f\u7fa4\u804a
p481
sVRemarkPYQuanPin
p482
g52
sVHeadImgUrl
p483
V/cgi-bin/mmwebwx-bin/webwxgetheadimg?seq=653490577&username=@@7247447b8c0d154421baa90c343dc32d3c517d39702cf6abdd1f06c2160ee71f&skey=@crypt_2c74ff4e_fa67f3ccb0eadaae3019009aafaecab6
p484
sVUin
p485
I0
sVStarFriend
p486
I0
sVStatues
p487
I1
stp488
Rp489
I1
bag34
(g295
g39
(dp490
VUserName
p491
V@@2e6bf0fce039bc85888be4ff0b8bd5d0c2efb9b8dfb921c86c2a1098dfc5ed93
p492
sVCity
p493
g52
sVDisplayName
p494
g52
sVUniFriend
p495
I0
sg302
g34
(g38
g39
(dp496
g41
g31
sg42
g43
sg44
g43
sg45
I0
sg46
I0
sg47
g34
(g35
g36
(lp497
tp498
Rp499
I1
bsg51
g52
sg53
g52
sg54
I1851969378
sg55
I0
sg56
I0
sg57
g43
sg58
g43
sg59
g52
sg60
g52
sg61
I0
sg62
I0
sg63
I1
sg64
g43
sg65
I0
sg66
I0
sg67
I0
sg68
I0
sg69
g43
sg70
g52
sg71
I0
sg72
g73
sg74
g52
sg75
g76
sg77
I0
sg78
I0
sg79
I0
stp500
Rp501
I1
bsVMemberList
p502
g34
(g35
g36
(lp503
tp504
Rp505
I1
bsVPYQuanPin
p506
Vzheyeshi
p507
sVRemarkPYInitial
p508
g52
sVSex
p509
I0
sVAppAccountFlag
p510
I0
sVVerifyFlag
p511
I0
sVProvince
p512
g52
sVKeyWord
p513
g52
sVRemarkName
p514
g52
sVPYInitial
p515
VZYS
p516
sVIsOwner
p517
I1
sVChatRoomId
p518
I0
sVHideInputBarFlag
p519
I0
sVEncryChatRoomId
p520
g52
sVAttrStatus
p521
I0
sVSnsFlag
p522
I0
sVMemberCount
p523
I0
sVOwnerUin
p524
I0
sVAlias
p525
g52
sg333
NsVSignature
p526
g52
sVContactFlag
p527
I3
sVNickName
p528
V\u8fd9\u4e5f\u662f
p529
sVRemarkPYQuanPin
p530
g52
sVHeadImgUrl
p531
V/cgi-bin/mmwebwx-bin/webwxgetheadimg?seq=653490999&username=@@2e6bf0fce039bc85888be4ff0b8bd5d0c2efb9b8dfb921c86c2a1098dfc5ed93&skey=@crypt_2c74ff4e_fa67f3ccb0eadaae3019009aafaecab6
p532
sVUin
p533
I0
sVStarFriend
p534
I0
sVStatues
p535
I1
stp536
Rp537
I1
batp538
Rp539
I1
bsS'nickName'
p540
g73
sS'mpList'
p541
g34
(g35
g36
(lp542
g34
(citchat.storage.templates
MassivePlatform
p543
g39
(dp544
VUserName
p545
V@721559c769509d9f36f0ec924cbfb510
p546
sVCity
p547
g52
sVSnsFlag
p548
I0
sVDisplayName
p549
g52
sVUniFriend
p550
I0
sVMemberCount
p551
I0
sVOwnerUin
p552
I0
sVMemberList
p553
g50
sVAlias
p554
g52
sVPYQuanPin
p555
Vsheideshangdejiekouceshihao
p556
sVSignature
p557
g52
sVRemarkPYInitial
p558
g52
sVContactFlag
p559
I3
sVUin
p560
I0
sVNickName
p561
Vsheideshang\u7684\u63a5\u53e3\u6d4b\u8bd5\u53f7
p562
sVAppAccountFlag
p563
I0
sVVerifyFlag
p564
I8
sVRemarkPYQuanPin
p565
g52
sVHeadImgUrl
p566
V/cgi-bin/mmwebwx-bin/webwxgeticon?seq=653490153&username=@721559c769509d9f36f0ec924cbfb510&skey=@crypt_2c74ff4e_fa67f3ccb0eadaae3019009aafaecab6
p567
sVKeyWord
p568
Vgh_
p569
sVProvince
p570
g52
sVPYInitial
p571
VSHEIDESHANGDJKCSH
p572
sVRemarkName
p573
g52
sVIsOwner
p574
I0
sVSex
p575
I0
sVStarFriend
p576
I0
sVHideInputBarFlag
p577
I0
sVChatRoomId
p578
I0
sVEncryChatRoomId
p579
g52
sVAttrStatus
p580
I0
sVStatues
p581
I0
stp582
Rp583
I1
bag34
(g543
g39
(dp584
VUserName
p585
V@41737a1fb66bab8f575deede71944522
p586
sVCity
p587
V\u6d77\u6dc0
p588
sVSnsFlag
p589
I0
sVDisplayName
p590
g52
sVUniFriend
p591
I0
sVMemberCount
p592
I0
sVOwnerUin
p593
I0
sVMemberList
p594
g50
sVAlias
p595
g52
sVPYQuanPin
p596
Vfangtang
p597
sVSignature
p598
V\u65b9\u7cd6\u51fa\u54c1\uff0c\u4e3a\u65b9\u7cd6\u6c14\u7403\u7cfb\u5217\u4ea7\u54c1\u63d0\u4f9b\u670d\u52a1\u7684\u516c\u4f17\u53f7\u3002
p599
sVRemarkPYInitial
p600
g52
sVContactFlag
p601
I3
sVUin
p602
I0
sVNickName
p603
V\u65b9\u7cd6
p604
sVAppAccountFlag
p605
I0
sVVerifyFlag
p606
I24
sVRemarkPYQuanPin
p607
g52
sVHeadImgUrl
p608
V/cgi-bin/mmwebwx-bin/webwxgeticon?seq=653490743&username=@41737a1fb66bab8f575deede71944522&skey=@crypt_2c74ff4e_fa67f3ccb0eadaae3019009aafaecab6
p609
sVKeyWord
p610
Vgh_
p611
sVProvince
p612
V\u5317\u4eac
p613
sVPYInitial
p614
VFT
p615
sVRemarkName
p616
g52
sVIsOwner
p617
I0
sVSex
p618
I0
sVStarFriend
p619
I0
sVHideInputBarFlag
p620
I0
sVChatRoomId
p621
I0
sVEncryChatRoomId
p622
g52
sVAttrStatus
p623
I0
sVStatues
p624
I0
stp625
Rp626
I1
batp627
Rp628
I1
bssS'loginInfo'
p629
(dp630
S'SyncKey'
p631
(dp632
VCount
p633
I4
sVList
p634
(lp635
(dp636
VVal
p637
I653490917
sVKey
p638
I1
sa(dp639
VVal
p640
I653491130
sVKey
p641
I2
sa(dp642
VVal
p643
I653491048
sVKey
p644
I3
sa(dp645
VVal
p646
I1501144499
sVKey
p647
I1000
sassS'syncUrl'
p648
S'https://webpush.wx2.qq.com/cgi-bin/mmwebwx-bin'
p649
sS'skey'
p650
V@crypt_2c74ff4e_fa67f3ccb0eadaae3019009aafaecab6
p651
sS'wxuin'
p652
V1851969378
p653
sS'synckey'
p654
S'1_653490917|2_653491130|3_653491048|1000_1501144499'
p655
sS'url'
p656
Vhttps://wx2.qq.com/cgi-bin/mmwebwx-bin
p657
sS'pass_ticket'
p658
VMvHNkSYHZMzpfc1l0qBtL41JUsAYzDAE91C769x%2FFD2QmIT7IEgc0MidEKSNhx0m
p659
sS'wxsid'
p660
VryUhJLHb0+DGZLNG
p661
sS'BaseRequest'
p662
(dp663
g54
g653
sS'Skey'
p664
g651
sS'DeviceID'
p665
g659
sS'Sid'
p666
g661
ssS'User'
p667
g34
(g38
g39
(dp668
g41
g31
sg42
g43
sg44
g43
sg45
I0
sg47
g50
sg51
g52
sg53
g52
sg77
I0
sg55
I0
sg56
I0
sg57
g43
sg58
g43
sg59
g52
sg60
g52
sg61
I0
sg62
I0
sg63
I1
sg64
g43
sg65
I0
sg68
I0
sg66
I0
sg67
I0
sg46
I0
sg69
g43
sg70
g52
sg71
I0
sg72
g73
sg74
g52
sg75
g76
sg54
I1851969378
sg78
I0
sg79
I0
stp669
Rp670
I1
bsS'fileUrl'
p671
S'https://file.wx2.qq.com/cgi-bin/mmwebwx-bin'
p672
sS'InviteStartCount'
p673
I40
sS'deviceid'
p674
S'e318616308145026'
p675
ss.